target datalayout = "e-m:e-p270:32:32-p271:32:32-p272:64:64-i64:64-i128:128-f80:128-n8:16:32:64-S128"
target triple = "x86_64-pc-linux-gnu"

%struct.sysinfo = type { i64, [3 x i64], i64, i64, i64, i64, i64, i64, i16, i16, i64, i64, i32, [0 x i8] }

@.str.140 = private unnamed_addr constant [11 x i8] c"OS uptime:\00", align 1

; Function Attrs: mustprogress nounwind uwtable
define hidden void @_ZN2os5Linux17print_uptime_infoEP12outputStream(ptr noundef %0) #1 align 2 {
  %2 = alloca ptr, align 8
  %3 = alloca %struct.sysinfo, align 8
  %4 = alloca i32, align 4
  store ptr %0, ptr %2, align 8
  %5 = call i32 @sysinfo(ptr noundef %3) #12
  store i32 %5, ptr %4, align 4
  %6 = load i32, ptr %4, align 4
  %7 = icmp eq i32 %6, 0
  br i1 %7, label %8, label %12

8:                                                ; preds = %1
  %9 = load ptr, ptr %2, align 8
  %10 = getelementptr inbounds %struct.sysinfo, ptr %3, i32 0, i32 0
  %11 = load i64, ptr %10, align 8
  call void @_ZN2os9print_dhmEP12outputStreamPKcl(ptr noundef %9, ptr noundef @.str.140, i64 noundef %11)
  br label %12

12:                                               ; preds = %8, %1
  ret void
}