; Function Attrs: mustprogress nounwind uwtable
define hidden void @_ZN2os5Linux17print_uptime_infoEP12outputStream(ptr noundef %0) local_unnamed_addr #0 align 2 {
  %2 = alloca %struct.sysinfo, align 8
  %3 = call i32 @sysinfo(ptr noundef nonnull %2) #26
  %4 = icmp eq i32 %3, 0
  br i1 %4, label %5, label %7

5:                                                ; preds = %1
  %6 = load i64, ptr %2, align 8
  call void @_ZN2os9print_dhmEP12outputStreamPKcl(ptr noundef %0, ptr noundef nonnull @.str.140, i64 noundef %6) #26
  br label %7

7:                                                ; preds = %5, %1
  ret void
}